; Function Attrs: nounwind uwtable
define noundef ptr @SUNAdaptController_Soderlind(ptr noundef %0) local_unnamed_addr #0 {
  %2 = tail call ptr @SUNAdaptController_NewEmpty(ptr noundef %0) #11
  %3 = getelementptr inbounds nuw i8, ptr %2, i64 8
  %4 = load ptr, ptr %3, align 8, !tbaa !3
  store ptr @SUNAdaptController_GetType_Soderlind, ptr %4, align 8, !tbaa !10
  %5 = getelementptr inbounds nuw i8, ptr %4, i64 8
  store ptr @SUNAdaptController_EstimateStep_Soderlind, ptr %5, align 8, !tbaa !12
  %6 = getelementptr inbounds nuw i8, ptr %4, i64 32
  store ptr @SUNAdaptController_Reset_Soderlind, ptr %6, align 8, !tbaa !13
  %7 = getelementptr inbounds nuw i8, ptr %4, i64 40
  store ptr @SUNAdaptController_SetDefaults_Soderlind, ptr %7, align 8, !tbaa !14
  %8 = getelementptr inbounds nuw i8, ptr %4, i64 48
  store ptr @SUNAdaptController_Write_Soderlind, ptr %8, align 8, !tbaa !15
  %9 = getelementptr inbounds nuw i8, ptr %4, i64 56
  store ptr @SUNAdaptController_SetErrorBias_Soderlind, ptr %9, align 8, !tbaa !16
  %10 = getelementptr inbounds nuw i8, ptr %4, i64 64
  store ptr @SUNAdaptController_UpdateH_Soderlind, ptr %10, align 8, !tbaa !17
  %11 = getelementptr inbounds nuw i8, ptr %4, i64 80
  store ptr @SUNAdaptController_Space_Soderlind, ptr %11, align 8, !tbaa !18
  %12 = tail call noalias dereferenceable_or_null(88) ptr @malloc(i64 noundef 88) #12
  store ptr %12, ptr %2, align 8, !tbaa !19
  store double 1.250000e+00, ptr %12, align 8, !tbaa !20
  %13 = getelementptr inbounds nuw i8, ptr %12, i64 8
  store double 5.000000e-01, ptr %13, align 8, !tbaa !24
  %14 = getelementptr inbounds nuw i8, ptr %12, i64 16
  store double -7.500000e-01, ptr %14, align 8, !tbaa !25
  %15 = getelementptr inbounds nuw i8, ptr %12, i64 24
  store double 2.500000e-01, ptr %15, align 8, !tbaa !26
  %16 = getelementptr inbounds nuw i8, ptr %12, i64 32
  store double 7.500000e-01, ptr %16, align 8, !tbaa !27
  %17 = getelementptr inbounds nuw i8, ptr %12, i64 40
  store double 1.500000e+00, ptr %17, align 8, !tbaa !28
  %18 = getelementptr inbounds nuw i8, ptr %12, i64 48
  store double 1.000000e+00, ptr %18, align 8, !tbaa !29
  %19 = getelementptr inbounds nuw i8, ptr %12, i64 56
  store double 1.000000e+00, ptr %19, align 8, !tbaa !30
  %20 = getelementptr inbounds nuw i8, ptr %12, i64 64
  store double 1.000000e+00, ptr %20, align 8, !tbaa !31
  %21 = getelementptr inbounds nuw i8, ptr %12, i64 72
  store double 1.000000e+00, ptr %21, align 8, !tbaa !32
  %22 = getelementptr inbounds nuw i8, ptr %12, i64 80
  store i32 0, ptr %22, align 8, !tbaa !33
  ret ptr %2
}